Certificate:
    Data:
        Version: 3 (0x2)
        Serial Number: 6 (0x6)
    Signature Algorithm: sha256WithRSAEncryption
        Issuer: C=CZ, O=Cacek, CN=Cacek Certification Authority
        Validity
            Not Before: Nov 27 19:11:39 2018 GMT
            Not After : Nov 27 19:11:39 2019 GMT
        Subject: C=CZ, O=Cacek, CN=nosan-client
        Subject Public Key Info:
            Public Key Algorithm: rsaEncryption
                Public-Key: (2048 bit)
                Modulus:
                    00:cb:d9:ee:74:37:c9:22:bf:14:e6:45:6f:47:11:
                    a4:db:24:2b:d4:54:a6:75:a5:31:b0:97:52:d2:fc:
                    39:6e:9f:07:66:47:58:37:3b:44:a1:f9:eb:35:f2:
                    90:37:20:b3:57:c1:8a:b1:8d:e3:24:19:c8:93:b2:
                    7d:cf:bb:9b:a0:69:78:f4:25:bd:62:48:47:e2:15:
                    0c:b6:8c:2b:87:d1:df:cc:97:49:0c:8d:2a:8e:78:
                    6f:4e:6e:46:76:7b:72:7d:83:ab:e1:7e:3c:25:b1:
                    a7:f2:f1:8f:89:ac:cb:9b:42:ed:6e:90:52:89:f6:
                    5a:5a:42:c7:53:f6:40:2e:ef:8f:47:74:1e:12:6f:
                    65:6c:b1:24:e7:52:bf:7b:75:9a:33:36:0f:78:cd:
                    72:fc:13:e6:96:7e:3b:22:aa:e9:cf:1a:c6:63:75:
                    38:0e:e1:9f:a8:89:b0:81:bd:15:67:c3:a1:70:61:
                    be:f8:71:c0:c1:1c:43:70:3d:5c:af:2a:c4:74:91:
                    78:13:39:d9:a0:36:62:af:74:44:54:82:5c:ba:97:
                    ea:35:41:67:c1:e0:0a:06:e9:56:d0:3f:41:0e:03:
                    39:d8:8a:76:ea:6e:a2:11:8a:cf:88:93:13:cb:27:
                    c5:9b:e8:07:2f:6f:a0:d4:28:e7:28:a1:13:7f:e5:
                    1f:65
                Exponent: 65537 (0x10001)
        X509v3 extensions:
            X509v3 Basic Constraints: 
                CA:FALSE
            X509v3 Key Usage: 
                Digital Signature, Non Repudiation, Key Encipherment
            Authority Information Access: 
                OCSP - URI:http://localhost:16975

    Signature Algorithm: sha256WithRSAEncryption
         5b:63:b8:45:4b:0f:23:63:0d:d0:52:fb:45:05:f3:60:ff:ca:
         3c:18:22:f8:0e:5e:77:15:cc:59:ee:9f:7e:b1:a8:63:04:8d:
         2f:36:79:ac:a2:8b:0d:a4:61:2f:5e:9e:c9:a3:2a:93:98:2d:
         48:83:7f:e7:f2:be:e3:67:bf:b9:c4:28:66:77:e9:38:6a:ed:
         7f:eb:96:15:b2:e8:65:9e:fa:e3:3c:21:d8:d1:84:2a:f0:25:
         89:6b:dd:41:d8:a4:83:a1:6b:78:28:5c:83:b1:66:b1:a3:e0:
         32:15:a7:85:02:99:dd:53:84:a5:57:ca:3c:75:d7:15:8f:e1:
         49:08:53:32:8e:73:bc:3d:e1:11:e2:64:a9:85:54:f2:c6:03:
         6b:80:1f:49:1a:56:52:17:f8:7f:7a:30:43:21:26:13:fd:01:
         8c:5e:f3:61:76:83:d4:e5:f5:89:9b:1d:2b:e1:dd:1d:2d:28:
         92:9f:78:f9:1e:9d:25:a2:19:c9:a2:d7:f8:97:5f:e6:8f:96:
         a7:1c:fd:ce:b4:f6:85:2c:40:a6:b9:94:81:2c:50:cc:5a:7f:
         af:96:8d:68:4b:2f:fb:e2:43:d1:d0:4f:5f:05:8f:62:d6:58:
         8c:b2:7a:6f:2a:1b:cc:96:79:18:0d:1a:c0:3e:e2:1b:d4:ae:
         df:42:66:c9
-----BEGIN CERTIFICATE-----
MIIDQjCCAiqgAwIBAgIBBjANBgkqhkiG9w0BAQsFADBFMQswCQYDVQQGEwJDWjEO
MAwGA1UECgwFQ2FjZWsxJjAkBgNVBAMMHUNhY2VrIENlcnRpZmljYXRpb24gQXV0
aG9yaXR5MB4XDTE4MTEyNzE5MTEzOVoXDTE5MTEyNzE5MTEzOVowNDELMAkGA1UE
BhMCQ1oxDjAMBgNVBAoMBUNhY2VrMRUwEwYDVQQDDAxub3Nhbi1jbGllbnQwggEi
MA0GCSqGSIb3DQEBAQUAA4IBDwAwggEKAoIBAQDL2e50N8kivxTmRW9HEaTbJCvU
VKZ1pTGwl1LS/DlunwdmR1g3O0Sh+es18pA3ILNXwYqxjeMkGciTsn3Pu5ugaXj0
Jb1iSEfiFQy2jCuH0d/Ml0kMjSqOeG9ObkZ2e3J9g6vhfjwlsafy8Y+JrMubQu1u
kFKJ9lpaQsdT9kAu749HdB4Sb2VssSTnUr97dZozNg94zXL8E+aWfjsiqunPGsZj
dTgO4Z+oibCBvRVnw6FwYb74ccDBHENwPVyvKsR0kXgTOdmgNmKvdERUgly6l+o1
QWfB4AoG6VbQP0EOAznYinbqbqIRis+IkxPLJ8Wb6Acvb6DUKOcooRN/5R9lAgMB
AAGjTjBMMAkGA1UdEwQCMAAwCwYDVR0PBAQDAgXgMDIGCCsGAQUFBwEBBCYwJDAi
BggrBgEFBQcwAYYWaHR0cDovL2xvY2FsaG9zdDoxNjk3NTANBgkqhkiG9w0BAQsF
AAOCAQEAW2O4RUsPI2MN0FL7RQXzYP/KPBgi+A5edxXMWe6ffrGoYwSNLzZ5rKKL
DaRhL16eyaMqk5gtSIN/5/K+42e/ucQoZnfpOGrtf+uWFbLoZZ764zwh2NGEKvAl
iWvdQdikg6FreChcg7FmsaPgMhWnhQKZ3VOEpVfKPHXXFY/hSQhTMo5zvD3hEeJk
qYVU8sYDa4AfSRpWUhf4f3owQyEmE/0BjF7zYXaD1OX1iZsdK+HdHS0okp94+R6d
JaIZyaLX+Jdf5o+Wpxz9zrT2hSxAprmUgSxQzFp/r5aNaEsv++JD0dBPXwWPYtZY
jLJ6byobzJZ5GA0awD7iG9Su30JmyQ==
-----END CERTIFICATE-----
