Certificate:
    Data:
        Version: 3 (0x2)
        Serial Number: 2 (0x2)
    Signature Algorithm: sha256WithRSAEncryption
        Issuer: C=CZ, O=Cacek, CN=Cacek Certification Authority
        Validity
            Not Before: Nov 27 19:11:36 2018 GMT
            Not After : Nov 27 19:11:36 2019 GMT
        Subject: C=CZ, O=Cacek, CN=valid-client
        Subject Public Key Info:
            Public Key Algorithm: rsaEncryption
                Public-Key: (2048 bit)
                Modulus:
                    00:c4:c7:8d:01:44:46:b5:c9:37:64:48:6b:0e:36:
                    21:ea:4b:50:a8:de:6b:0c:39:d3:4a:c3:3e:a4:5d:
                    39:a6:60:cb:8a:38:2a:2f:e8:ff:0b:6e:a2:50:7d:
                    13:04:cb:a7:a7:60:9c:c1:60:81:1a:97:0f:14:d5:
                    f3:65:b4:db:de:c9:71:13:79:89:6a:86:d8:52:03:
                    f9:25:69:6f:d4:04:07:8f:dd:b5:ce:4f:4b:dd:ab:
                    69:bb:c1:63:5f:af:e0:94:95:44:f7:ef:e4:7b:1e:
                    9b:df:25:bb:c8:b7:77:16:e2:84:94:78:f3:57:21:
                    bc:4c:4d:de:de:98:7b:00:9e:9d:a3:9a:af:c7:a1:
                    47:49:20:77:5d:de:a7:a3:98:11:e7:1e:f6:8f:de:
                    82:66:70:cc:73:7a:2c:a5:c4:ff:77:55:3a:5c:45:
                    bc:62:5f:6d:b5:11:43:44:e4:57:c6:28:d6:8a:c1:
                    17:02:9d:7d:98:53:7f:d9:3c:f1:24:25:ad:40:76:
                    c9:d3:88:44:01:11:9f:e8:73:5f:83:76:ed:7a:c5:
                    36:05:3b:38:69:c5:f8:55:33:20:3c:a9:3c:43:53:
                    e8:da:82:37:99:4d:64:2f:89:64:ea:79:00:e8:a2:
                    39:13:d1:7f:68:5e:34:76:9f:d7:a8:f1:4e:11:47:
                    ad:71
                Exponent: 65537 (0x10001)
        X509v3 extensions:
            X509v3 Basic Constraints: 
                CA:FALSE
            X509v3 Key Usage: 
                Digital Signature, Non Repudiation, Key Encipherment
            Authority Information Access: 
                OCSP - URI:http://localhost:16975

            X509v3 Subject Alternative Name: 
                DNS:my-server.my-company.com, DNS:server.my-company.com, DNS:server.my-company.com, IP Address:172.17.0.2, IP Address:172.17.0.3
    Signature Algorithm: sha256WithRSAEncryption
         77:47:ae:52:30:e0:fc:08:7c:f7:b8:91:ba:93:93:16:32:2d:
         ad:09:5a:88:cb:2a:fa:6e:68:63:1d:fa:ff:a8:0f:20:a8:80:
         47:a5:8d:30:f9:c5:6e:c1:dd:24:7e:0a:70:87:9a:64:d8:63:
         28:08:80:68:bb:fd:3b:04:9f:11:9c:e7:71:d0:7c:3e:1f:ad:
         59:42:f7:5e:be:b9:e2:19:c5:0c:a8:e0:1e:41:3e:85:84:0b:
         0f:e4:10:fd:b4:f1:f1:c2:2f:8a:b4:f1:8a:e9:cd:85:3e:69:
         59:8a:43:ab:7e:e5:f8:c8:82:09:b7:bf:19:de:51:8c:b6:32:
         4e:34:8a:d1:6a:97:a1:b2:0b:bd:30:f1:5c:37:2a:4e:69:8f:
         6d:54:5f:8b:90:d3:8b:45:f5:5a:d4:66:29:ac:06:8d:4a:8b:
         56:a6:0a:a4:08:7e:45:92:84:62:f3:60:9b:71:c7:7d:06:da:
         c6:a1:d8:05:19:f1:17:28:49:41:e6:38:fe:7b:7c:25:a1:53:
         27:1a:d4:61:20:81:f7:87:20:8a:f1:b9:51:b1:ca:70:2a:1c:
         91:42:d4:81:59:87:74:73:07:42:1e:02:ab:a0:5c:6a:b6:45:
         66:f5:40:cf:91:97:71:a4:96:fc:6a:1d:9b:13:61:5e:99:f7:
         97:0b:18:71
-----BEGIN CERTIFICATE-----
MIIDozCCAougAwIBAgIBAjANBgkqhkiG9w0BAQsFADBFMQswCQYDVQQGEwJDWjEO
MAwGA1UECgwFQ2FjZWsxJjAkBgNVBAMMHUNhY2VrIENlcnRpZmljYXRpb24gQXV0
aG9yaXR5MB4XDTE4MTEyNzE5MTEzNloXDTE5MTEyNzE5MTEzNlowNDELMAkGA1UE
BhMCQ1oxDjAMBgNVBAoMBUNhY2VrMRUwEwYDVQQDDAx2YWxpZC1jbGllbnQwggEi
MA0GCSqGSIb3DQEBAQUAA4IBDwAwggEKAoIBAQDEx40BREa1yTdkSGsONiHqS1Co
3msMOdNKwz6kXTmmYMuKOCov6P8LbqJQfRMEy6enYJzBYIEalw8U1fNltNveyXET
eYlqhthSA/klaW/UBAeP3bXOT0vdq2m7wWNfr+CUlUT37+R7HpvfJbvIt3cW4oSU
ePNXIbxMTd7emHsAnp2jmq/HoUdJIHdd3qejmBHnHvaP3oJmcMxzeiylxP93VTpc
RbxiX221EUNE5FfGKNaKwRcCnX2YU3/ZPPEkJa1AdsnTiEQBEZ/oc1+Ddu16xTYF
OzhpxfhVMyA8qTxDU+jagjeZTWQviWTqeQDoojkT0X9oXjR2n9eo8U4RR61xAgMB
AAGjga4wgaswCQYDVR0TBAIwADALBgNVHQ8EBAMCBeAwMgYIKwYBBQUHAQEEJjAk
MCIGCCsGAQUFBzABhhZodHRwOi8vbG9jYWxob3N0OjE2OTc1MF0GA1UdEQRWMFSC
GG15LXNlcnZlci5teS1jb21wYW55LmNvbYIVc2VydmVyLm15LWNvbXBhbnkuY29t
ghVzZXJ2ZXIubXktY29tcGFueS5jb22HBKwRAAKHBKwRAAMwDQYJKoZIhvcNAQEL
BQADggEBAHdHrlIw4PwIfPe4kbqTkxYyLa0JWojLKvpuaGMd+v+oDyCogEeljTD5
xW7B3SR+CnCHmmTYYygIgGi7/TsEnxGc53HQfD4frVlC916+ueIZxQyo4B5BPoWE
Cw/kEP208fHCL4q08YrpzYU+aVmKQ6t+5fjIggm3vxneUYy2Mk40itFql6GyC70w
8Vw3Kk5pj21UX4uQ04tF9VrUZimsBo1Ki1amCqQIfkWShGLzYJtxx30G2sah2AUZ
8RcoSUHmOP57fCWhUyca1GEggfeHIIrxuVGxynAqHJFC1IFZh3RzB0IeAqugXGq2
RWb1QM+Rl3GklvxqHZsTYV6Z95cLGHE=
-----END CERTIFICATE-----
