Certificate:
    Data:
        Version: 3 (0x2)
        Serial Number: 1 (0x1)
        Signature Algorithm: sha256WithRSAEncryption
        Issuer: C=CZ, O=Cacek, CN=Cacek Certification Authority
        Validity
            Not Before: Apr 17 14:36:06 2024 GMT
            Not After : Apr 17 14:36:06 2025 GMT
        Subject: C=CZ, O=Cacek, CN=localhost
        Subject Public Key Info:
            Public Key Algorithm: rsaEncryption
                Public-Key: (2048 bit)
                Modulus:
                    00:b3:cf:20:b4:57:a1:3b:1f:6f:66:e8:5c:31:f2:
                    fc:f4:e3:6c:61:ba:07:27:b1:84:ef:84:c6:02:24:
                    e8:92:11:84:60:35:22:39:61:d8:78:63:5d:2a:13:
                    a4:7f:a7:01:df:f2:a2:10:cb:11:98:26:41:38:0a:
                    13:ed:92:9e:56:a9:1e:61:1b:ff:63:cb:60:79:d9:
                    62:2c:1b:e7:e0:73:20:1b:c9:99:96:cf:15:79:13:
                    4a:17:99:e3:5b:70:78:2d:bc:78:04:ab:9c:5b:64:
                    24:f7:d6:9b:ea:03:79:f3:85:48:2e:b0:91:c9:4e:
                    bf:63:b2:41:0a:ba:61:37:bb:6e:7c:ac:67:67:b5:
                    e5:80:8d:c7:af:35:a9:4c:0a:c8:67:46:a0:23:ef:
                    80:6b:a2:7f:45:9d:07:6c:fe:78:27:7e:5c:ac:f0:
                    fb:0d:f1:d6:02:05:7f:c8:dc:28:b6:dd:5e:d5:3b:
                    48:c3:d1:fb:d8:85:c1:73:8b:e1:71:51:5f:91:1a:
                    b8:49:d1:36:fc:da:6f:c2:58:43:b0:a9:3f:5f:69:
                    bf:c4:87:eb:e1:1a:75:bb:63:49:f1:5d:95:76:4e:
                    00:32:ae:dd:3e:55:fe:0c:90:3d:52:89:0d:ac:59:
                    49:a1:7a:1e:49:2b:5c:8c:64:62:a8:77:ec:d7:e8:
                    8e:15
                Exponent: 65537 (0x10001)
        X509v3 extensions:
            X509v3 Basic Constraints: 
                CA:FALSE
            X509v3 Key Usage: 
                Digital Signature, Non Repudiation, Key Encipherment
            Authority Information Access: 
                OCSP - URI:http://localhost:16975
            X509v3 Subject Alternative Name: 
                DNS:my-server.my-company.com, DNS:server.my-company.com, DNS:server.my-company.com, IP Address:172.17.0.2, IP Address:172.17.0.3
            X509v3 Subject Key Identifier: 
                5B:40:17:5C:0F:BE:F9:01:73:8D:1B:53:3C:AE:A0:0A:B5:F3:BA:C6
            X509v3 Authority Key Identifier: 
                8A:83:DB:BE:E7:69:D1:AE:B2:0A:2C:F2:69:9D:38:71:59:C9:41:B6
    Signature Algorithm: sha256WithRSAEncryption
    Signature Value:
        a0:2e:a6:89:63:9f:19:97:e6:30:e2:ab:ba:6c:44:78:cc:a6:
        d6:f6:e9:ea:10:bb:09:65:74:a4:e4:f7:fd:09:83:48:b6:d5:
        33:e1:e4:7c:07:26:25:34:76:a5:28:af:7d:e8:cd:e0:f9:15:
        38:e0:c4:19:41:af:18:4f:ef:a7:23:e4:d6:a0:a5:26:f1:f1:
        5a:25:87:a4:2f:e3:09:8f:4b:95:30:02:50:39:99:5e:58:a2:
        94:bc:ab:ca:75:22:a4:90:01:93:85:19:ea:39:42:c6:33:e7:
        ab:24:2d:2f:1a:20:ab:eb:9a:89:79:11:09:b7:73:e5:ee:70:
        7a:b9:20:ff:d3:36:0f:00:d3:2b:d2:2f:3d:57:81:5b:b9:b3:
        7c:f7:03:40:72:47:a4:e0:93:bd:2b:41:f6:6b:af:b4:22:5e:
        44:58:46:0a:34:5b:53:a4:85:1b:f8:d7:00:61:a2:81:21:1d:
        ed:3e:92:3b:6d:12:ee:12:75:5e:1a:31:cb:90:14:bc:e1:5f:
        25:e6:f6:30:80:d9:5e:fe:d8:ba:95:95:61:4b:0b:92:c4:7f:
        33:a8:a3:7f:32:e3:47:53:16:6e:f7:59:26:b5:5a:07:ce:4c:
        8d:1c:75:4f:96:b8:3b:55:0c:65:bc:07:42:fe:8e:ff:17:13:
        33:8c:a0:1e
-----BEGIN CERTIFICATE-----
MIID4DCCAsigAwIBAgIBATANBgkqhkiG9w0BAQsFADBFMQswCQYDVQQGEwJDWjEO
MAwGA1UECgwFQ2FjZWsxJjAkBgNVBAMMHUNhY2VrIENlcnRpZmljYXRpb24gQXV0
aG9yaXR5MB4XDTI0MDQxNzE0MzYwNloXDTI1MDQxNzE0MzYwNlowMTELMAkGA1UE
BhMCQ1oxDjAMBgNVBAoMBUNhY2VrMRIwEAYDVQQDDAlsb2NhbGhvc3QwggEiMA0G
CSqGSIb3DQEBAQUAA4IBDwAwggEKAoIBAQCzzyC0V6E7H29m6Fwx8vz042xhugcn
sYTvhMYCJOiSEYRgNSI5Ydh4Y10qE6R/pwHf8qIQyxGYJkE4ChPtkp5WqR5hG/9j
y2B52WIsG+fgcyAbyZmWzxV5E0oXmeNbcHgtvHgEq5xbZCT31pvqA3nzhUgusJHJ
Tr9jskEKumE3u258rGdnteWAjcevNalMCshnRqAj74Bron9FnQds/ngnflys8PsN
8dYCBX/I3Ci23V7VO0jD0fvYhcFzi+FxUV+RGrhJ0Tb82m/CWEOwqT9fab/Eh+vh
GnW7Y0nxXZV2TgAyrt0+Vf4MkD1SiQ2sWUmheh5JK1yMZGKod+zX6I4VAgMBAAGj
ge4wgeswCQYDVR0TBAIwADALBgNVHQ8EBAMCBeAwMgYIKwYBBQUHAQEEJjAkMCIG
CCsGAQUFBzABhhZodHRwOi8vbG9jYWxob3N0OjE2OTc1MF0GA1UdEQRWMFSCGG15
LXNlcnZlci5teS1jb21wYW55LmNvbYIVc2VydmVyLm15LWNvbXBhbnkuY29tghVz
ZXJ2ZXIubXktY29tcGFueS5jb22HBKwRAAKHBKwRAAMwHQYDVR0OBBYEFFtAF1wP
vvkBc40bUzyuoAq187rGMB8GA1UdIwQYMBaAFIqD277nadGusgos8mmdOHFZyUG2
MA0GCSqGSIb3DQEBCwUAA4IBAQCgLqaJY58Zl+Yw4qu6bER4zKbW9unqELsJZXSk
5Pf9CYNIttUz4eR8ByYlNHalKK996M3g+RU44MQZQa8YT++nI+TWoKUm8fFaJYek
L+MJj0uVMAJQOZleWKKUvKvKdSKkkAGThRnqOULGM+erJC0vGiCr65qJeREJt3Pl
7nB6uSD/0zYPANMr0i89V4FbubN89wNAckek4JO9K0H2a6+0Il5EWEYKNFtTpIUb
+NcAYaKBIR3tPpI7bRLuEnVeGjHLkBS84V8l5vYwgNle/ti6lZVhSwuSxH8zqKN/
MuNHUxZu91kmtVoHzkyNHHVPlrg7VQxlvAdC/o7/FxMzjKAe
-----END CERTIFICATE-----
