Certificate:
    Data:
        Version: 3 (0x2)
        Serial Number: 5 (0x5)
    Signature Algorithm: sha256WithRSAEncryption
        Issuer: C=CZ, O=Cacek, CN=Cacek Certification Authority
        Validity
            Not Before: Jan  1 00:00:00 2030 GMT
            Not After : Dec 31 23:59:59 2030 GMT
        Subject: C=CZ, O=Cacek, CN=notYetValid
        Subject Public Key Info:
            Public Key Algorithm: rsaEncryption
                Public-Key: (2048 bit)
                Modulus:
                    00:de:0a:d7:14:8c:02:9e:1a:ff:e2:a5:b5:79:8e:
                    3a:4f:56:18:43:9c:b0:10:74:96:2f:ec:d7:45:d4:
                    a0:a3:14:6c:63:2b:02:d9:0d:16:af:b8:82:8b:d0:
                    bb:9f:e6:27:81:a9:57:6b:aa:0a:f8:b5:cd:7e:5d:
                    c6:95:99:95:16:bc:c7:b2:12:bf:bc:65:d4:39:dc:
                    7c:eb:6f:57:fd:87:0f:13:de:b0:2b:25:3d:16:06:
                    ab:a7:76:3b:22:f6:b8:0b:db:5f:3a:66:d4:52:41:
                    4c:12:6b:c8:5e:c5:8b:f0:e0:a0:9e:03:91:a7:8f:
                    10:bf:44:4f:d8:c3:e2:b3:9d:4d:b1:36:8b:5d:39:
                    74:4b:18:23:b7:58:f3:bb:ec:2e:38:a8:10:01:cb:
                    a3:a9:bd:3a:f8:9c:24:c8:7e:f9:5c:e6:18:90:3f:
                    6d:56:fd:08:c9:cc:d2:23:61:40:2d:ff:f5:ab:95:
                    f3:c5:a3:79:da:12:5a:b8:14:90:c2:97:0a:a9:d9:
                    18:43:ee:7c:77:88:46:5c:a9:f4:a7:5e:2e:8b:e5:
                    1c:86:fe:63:f4:65:16:b5:e1:15:7e:8e:62:77:73:
                    f9:fd:dc:a9:42:f4:68:df:58:e9:80:0c:9f:07:88:
                    fd:08:18:98:3b:6a:4c:41:0d:17:c3:60:58:60:10:
                    62:53
                Exponent: 65537 (0x10001)
        X509v3 extensions:
            X509v3 Basic Constraints: 
                CA:FALSE
            X509v3 Key Usage: 
                Digital Signature, Non Repudiation, Key Encipherment
            Authority Information Access: 
                OCSP - URI:http://localhost:16975

            X509v3 Subject Alternative Name: 
                DNS:my-server.my-company.com, DNS:server.my-company.com, DNS:server.my-company.com, IP Address:172.17.0.2, IP Address:172.17.0.3
    Signature Algorithm: sha256WithRSAEncryption
         09:f5:07:d4:64:82:9f:24:70:21:76:5b:c8:35:d1:57:94:82:
         c4:67:27:de:ac:48:48:bd:ab:21:eb:d1:e2:52:0b:ea:3c:7e:
         4d:c2:00:e8:b4:1a:e5:4c:b4:57:04:3c:93:33:75:a0:2f:42:
         e1:99:20:1b:7d:0e:bb:39:83:5d:57:ec:ff:90:d9:60:ed:59:
         6a:77:06:6f:8f:67:48:1e:33:eb:0b:61:54:2e:99:a5:d4:10:
         ae:a8:dd:8b:86:fe:b4:8b:c5:90:a5:b5:db:ea:3b:fd:ae:85:
         42:a5:a8:f2:63:02:c0:a7:1a:05:cb:02:e4:00:5a:eb:9f:e1:
         11:72:74:b4:6b:46:11:fc:00:d1:a0:a6:68:7e:6e:89:26:e8:
         ce:c2:46:da:6a:0e:ac:eb:67:bb:c2:f8:12:5e:d5:a3:83:20:
         61:29:14:e3:4d:2e:07:49:bd:a7:c6:98:08:55:a6:d1:ae:1d:
         e7:99:29:97:fa:0a:e2:3e:53:3e:81:00:4d:61:03:25:10:a5:
         df:ff:01:c1:2a:29:75:74:af:f9:65:ad:6f:58:06:c5:ae:85:
         22:f6:19:b0:e5:7e:87:c5:31:1d:51:21:a5:aa:8a:51:86:bc:
         87:5a:2e:71:24:0d:75:1f:76:78:ba:b1:f9:48:69:0c:62:1b:
         d6:fa:e6:1d
-----BEGIN CERTIFICATE-----
MIIDpjCCAo6gAwIBAgIBBTANBgkqhkiG9w0BAQsFADBFMQswCQYDVQQGEwJDWjEO
MAwGA1UECgwFQ2FjZWsxJjAkBgNVBAMMHUNhY2VrIENlcnRpZmljYXRpb24gQXV0
aG9yaXR5MCIYDzIwMzAwMTAxMDAwMDAwWhgPMjAzMDEyMzEyMzU5NTlaMDMxCzAJ
BgNVBAYTAkNaMQ4wDAYDVQQKDAVDYWNlazEUMBIGA1UEAwwLbm90WWV0VmFsaWQw
ggEiMA0GCSqGSIb3DQEBAQUAA4IBDwAwggEKAoIBAQDeCtcUjAKeGv/ipbV5jjpP
VhhDnLAQdJYv7NdF1KCjFGxjKwLZDRavuIKL0Luf5ieBqVdrqgr4tc1+XcaVmZUW
vMeyEr+8ZdQ53Hzrb1f9hw8T3rArJT0WBqundjsi9rgL2186ZtRSQUwSa8hexYvw
4KCeA5GnjxC/RE/Yw+KznU2xNotdOXRLGCO3WPO77C44qBABy6OpvTr4nCTIfvlc
5hiQP21W/QjJzNIjYUAt//WrlfPFo3naElq4FJDClwqp2RhD7nx3iEZcqfSnXi6L
5RyG/mP0ZRa14RV+jmJ3c/n93KlC9GjfWOmADJ8HiP0IGJg7akxBDRfDYFhgEGJT
AgMBAAGjga4wgaswCQYDVR0TBAIwADALBgNVHQ8EBAMCBeAwMgYIKwYBBQUHAQEE
JjAkMCIGCCsGAQUFBzABhhZodHRwOi8vbG9jYWxob3N0OjE2OTc1MF0GA1UdEQRW
MFSCGG15LXNlcnZlci5teS1jb21wYW55LmNvbYIVc2VydmVyLm15LWNvbXBhbnku
Y29tghVzZXJ2ZXIubXktY29tcGFueS5jb22HBKwRAAKHBKwRAAMwDQYJKoZIhvcN
AQELBQADggEBAAn1B9Rkgp8kcCF2W8g10VeUgsRnJ96sSEi9qyHr0eJSC+o8fk3C
AOi0GuVMtFcEPJMzdaAvQuGZIBt9Drs5g11X7P+Q2WDtWWp3Bm+PZ0geM+sLYVQu
maXUEK6o3YuG/rSLxZCltdvqO/2uhUKlqPJjAsCnGgXLAuQAWuuf4RFydLRrRhH8
ANGgpmh+bokm6M7CRtpqDqzrZ7vC+BJe1aODIGEpFONNLgdJvafGmAhVptGuHeeZ
KZf6CuI+Uz6BAE1hAyUQpd//AcEqKXV0r/llrW9YBsWuhSL2GbDlfofFMR1RIaWq
ilGGvIdaLnEkDXUfdni6sflIaQxiG9b65h0=
-----END CERTIFICATE-----
