Certificate:
    Data:
        Version: 3 (0x2)
        Serial Number: 4 (0x4)
    Signature Algorithm: sha256WithRSAEncryption
        Issuer: C=CZ, O=Cacek, CN=Cacek Certification Authority
        Validity
            Not Before: Jan  1 00:00:00 2000 GMT
            Not After : Dec 31 23:59:59 2000 GMT
        Subject: C=CZ, O=Cacek, CN=expired
        Subject Public Key Info:
            Public Key Algorithm: rsaEncryption
                Public-Key: (2048 bit)
                Modulus:
                    00:d4:15:69:be:f5:3e:db:4c:61:fb:39:d4:11:f1:
                    c9:a6:14:21:0f:cb:28:a9:37:1e:44:bf:fc:7f:14:
                    2b:47:26:49:7a:68:c7:88:34:4a:cd:da:82:d4:07:
                    f1:46:f7:f4:1d:0d:12:c6:d3:f5:ed:d1:62:8f:27:
                    0b:f7:6f:f5:1d:62:a7:b6:1f:aa:5d:68:6d:40:ff:
                    a0:c7:87:24:15:73:aa:dd:db:d2:ba:ec:b5:04:f6:
                    b2:3b:fb:84:bd:07:eb:09:76:da:5c:e5:9a:ea:d2:
                    50:d9:be:99:c9:cd:56:35:14:24:a7:48:c8:1e:fc:
                    92:0c:52:6d:68:fd:a5:8e:84:29:6d:7a:9e:fe:53:
                    a2:7d:d7:5b:7e:f8:db:fa:37:b3:98:2f:a8:23:d4:
                    c2:69:57:0f:6a:6d:2a:f2:28:63:70:d4:02:df:6f:
                    da:49:4a:b5:bc:87:f7:d2:0c:64:50:77:fa:65:01:
                    f9:08:e9:50:41:cf:87:1c:1a:35:d7:b9:d0:73:2f:
                    eb:97:1c:5d:58:72:fb:5b:3a:68:f1:f3:aa:05:91:
                    c6:0f:72:25:1b:7e:da:28:27:24:f5:bd:80:bc:a4:
                    9b:3e:69:9f:7c:ce:2e:81:94:1f:4b:73:65:95:60:
                    44:fc:2a:6b:ae:5f:11:d7:3e:11:d5:2f:6d:e3:1c:
                    71:4d
                Exponent: 65537 (0x10001)
        X509v3 extensions:
            X509v3 Basic Constraints: 
                CA:FALSE
            X509v3 Key Usage: 
                Digital Signature, Non Repudiation, Key Encipherment
            Authority Information Access: 
                OCSP - URI:http://localhost:16975

            X509v3 Subject Alternative Name: 
                DNS:my-server.my-company.com, DNS:server.my-company.com, DNS:server.my-company.com, IP Address:172.17.0.2, IP Address:172.17.0.3
    Signature Algorithm: sha256WithRSAEncryption
         1b:31:55:8f:d9:7b:00:a3:b5:f4:c2:84:2a:cd:ab:a3:b2:2d:
         75:8a:27:9d:ac:6b:24:63:7b:35:66:cf:1f:26:ba:cc:23:aa:
         22:68:a2:06:d7:ea:a9:84:e8:95:14:6a:8c:65:7e:aa:98:4c:
         90:2e:35:23:a8:56:df:67:3d:b6:a8:04:8d:03:1c:e2:c8:1b:
         50:91:d0:ea:6f:6a:18:32:8f:2b:56:81:fe:25:18:ee:88:ac:
         1a:04:68:f4:2d:19:e6:5e:18:69:13:16:06:ba:6c:ee:b6:e5:
         aa:df:85:76:cc:8d:82:5e:07:7e:69:28:b3:9e:56:89:53:ac:
         b3:6f:f7:26:58:8d:47:43:bc:1b:44:ab:fe:8f:3a:83:46:75:
         28:f1:cd:af:4b:2b:32:ae:a4:3c:f0:14:25:b4:d1:a1:e5:76:
         a6:d1:4f:cb:85:6e:54:2c:2e:61:b3:79:49:9f:55:36:31:bd:
         4b:47:34:01:28:9e:f0:79:7e:39:e4:73:8d:78:70:09:25:ef:
         7c:67:b1:e0:0a:18:c7:c3:48:ee:94:40:d8:5c:f4:28:0f:ed:
         2c:29:1f:7b:67:26:c8:ed:81:27:74:75:a2:ad:c3:22:6f:0d:
         92:e7:02:4d:cc:d8:cf:95:98:b6:76:19:42:0e:77:6d:d0:b8:
         a6:0b:9c:b0
-----BEGIN CERTIFICATE-----
MIIDojCCAoqgAwIBAgIBBDANBgkqhkiG9w0BAQsFADBFMQswCQYDVQQGEwJDWjEO
MAwGA1UECgwFQ2FjZWsxJjAkBgNVBAMMHUNhY2VrIENlcnRpZmljYXRpb24gQXV0
aG9yaXR5MCIYDzIwMDAwMTAxMDAwMDAwWhgPMjAwMDEyMzEyMzU5NTlaMC8xCzAJ
BgNVBAYTAkNaMQ4wDAYDVQQKDAVDYWNlazEQMA4GA1UEAwwHZXhwaXJlZDCCASIw
DQYJKoZIhvcNAQEBBQADggEPADCCAQoCggEBANQVab71PttMYfs51BHxyaYUIQ/L
KKk3HkS//H8UK0cmSXpox4g0Ss3agtQH8Ub39B0NEsbT9e3RYo8nC/dv9R1ip7Yf
ql1obUD/oMeHJBVzqt3b0rrstQT2sjv7hL0H6wl22lzlmurSUNm+mcnNVjUUJKdI
yB78kgxSbWj9pY6EKW16nv5Ton3XW3742/o3s5gvqCPUwmlXD2ptKvIoY3DUAt9v
2klKtbyH99IMZFB3+mUB+QjpUEHPhxwaNde50HMv65ccXVhy+1s6aPHzqgWRxg9y
JRt+2ignJPW9gLykmz5pn3zOLoGUH0tzZZVgRPwqa65fEdc+EdUvbeMccU0CAwEA
AaOBrjCBqzAJBgNVHRMEAjAAMAsGA1UdDwQEAwIF4DAyBggrBgEFBQcBAQQmMCQw
IgYIKwYBBQUHMAGGFmh0dHA6Ly9sb2NhbGhvc3Q6MTY5NzUwXQYDVR0RBFYwVIIY
bXktc2VydmVyLm15LWNvbXBhbnkuY29tghVzZXJ2ZXIubXktY29tcGFueS5jb22C
FXNlcnZlci5teS1jb21wYW55LmNvbYcErBEAAocErBEAAzANBgkqhkiG9w0BAQsF
AAOCAQEAGzFVj9l7AKO19MKEKs2ro7ItdYonnaxrJGN7NWbPHya6zCOqImiiBtfq
qYTolRRqjGV+qphMkC41I6hW32c9tqgEjQMc4sgbUJHQ6m9qGDKPK1aB/iUY7ois
GgRo9C0Z5l4YaRMWBrps7rblqt+FdsyNgl4Hfmkos55WiVOss2/3JliNR0O8G0Sr
/o86g0Z1KPHNr0srMq6kPPAUJbTRoeV2ptFPy4VuVCwuYbN5SZ9VNjG9S0c0ASie
8Hl+OeRzjXhwCSXvfGex4AoYx8NI7pRA2Fz0KA/tLCkfe2cmyO2BJ3R1oq3DIm8N
kucCTczYz5WYtnYZQg53bdC4pgucsA==
-----END CERTIFICATE-----
