Certificate:
    Data:
        Version: 3 (0x2)
        Serial Number: 1 (0x1)
    Signature Algorithm: sha256WithRSAEncryption
        Issuer: C=CZ, O=Cacek, CN=Cacek Certification Authority
        Validity
            Not Before: Nov 27 19:11:35 2018 GMT
            Not After : Nov 27 19:11:35 2019 GMT
        Subject: C=CZ, O=Cacek, CN=localhost
        Subject Public Key Info:
            Public Key Algorithm: rsaEncryption
                Public-Key: (2048 bit)
                Modulus:
                    00:d4:8d:cb:19:68:03:b1:bc:64:9f:c8:01:e2:4c:
                    20:78:a4:f6:69:22:35:1f:3f:97:01:a2:6c:ca:02:
                    24:e3:53:db:4c:4a:29:ac:e3:73:b3:f0:e2:20:8f:
                    c3:e1:80:eb:7f:6a:57:22:5d:27:85:ae:22:a0:2b:
                    fe:04:b0:11:bd:7a:9e:90:9e:38:90:b0:3a:98:0f:
                    95:8b:50:a9:90:04:99:11:39:62:cd:e4:d2:5a:3e:
                    54:78:37:f1:90:56:66:20:5c:97:30:61:5c:7f:16:
                    52:9f:bb:09:b3:ba:e2:52:38:96:33:bd:b2:5c:c5:
                    04:89:54:a3:0f:c6:07:e6:80:7c:e7:9a:d9:25:3d:
                    7f:75:37:8b:92:7e:af:bf:08:0c:b2:28:1d:a0:32:
                    70:9c:56:c9:49:55:1d:2d:0a:ca:5a:37:9d:f5:f3:
                    ec:7f:5c:cf:85:39:ff:eb:bf:95:90:b1:73:84:41:
                    09:cf:74:e9:2d:e7:c0:6d:cc:e5:49:19:c0:39:48:
                    07:63:f6:9d:99:51:dc:bb:ef:5e:bb:c4:a7:d4:d4:
                    f4:71:bf:d5:fd:a8:d6:cd:59:4f:67:8a:68:5f:03:
                    34:fa:64:fe:7b:a9:46:3f:32:19:1f:72:12:fb:81:
                    3a:ce:cf:b0:1a:43:2e:65:2e:5e:f1:c4:67:6c:6e:
                    24:5d
                Exponent: 65537 (0x10001)
        X509v3 extensions:
            X509v3 Basic Constraints: 
                CA:FALSE
            X509v3 Key Usage: 
                Digital Signature, Non Repudiation, Key Encipherment
            Authority Information Access: 
                OCSP - URI:http://localhost:16975

            X509v3 Subject Alternative Name: 
                DNS:my-server.my-company.com, DNS:server.my-company.com, DNS:server.my-company.com, IP Address:172.17.0.2, IP Address:172.17.0.3
    Signature Algorithm: sha256WithRSAEncryption
         5d:3c:75:35:a5:e5:17:0c:16:05:d4:c4:7b:3a:81:d4:93:d1:
         1c:94:62:1c:82:e2:d7:ba:d9:30:32:90:73:05:8d:3e:eb:bc:
         2c:00:1c:9d:1e:61:47:ca:ac:9b:ff:75:34:e9:70:e0:17:c7:
         86:68:e9:c0:a1:16:95:8b:04:e7:91:29:0e:3b:37:b1:e5:57:
         b8:d5:fb:9e:2d:28:8e:72:a8:48:8d:72:45:82:ac:ed:8f:34:
         2c:2d:9c:34:2e:a1:96:cd:bd:dc:c0:01:32:4f:dd:dc:ce:1a:
         42:7e:c9:66:78:e2:32:c8:85:1f:7c:5d:f2:5a:10:8b:17:48:
         a5:4c:49:9c:2e:ef:ba:1b:be:b6:4d:46:3c:dd:d0:c3:fe:7f:
         fb:13:25:98:16:10:a7:8d:bb:ec:8e:39:36:dc:4e:de:30:be:
         d5:d1:04:e8:19:d6:d2:c4:15:94:aa:04:c8:1b:e3:69:ce:17:
         31:1e:5e:1f:df:ec:b1:33:3a:02:6d:c3:fb:60:67:f0:05:2b:
         d5:46:25:25:e4:a5:e9:60:30:15:a4:fe:8d:5b:02:4f:c2:a7:
         40:6a:3d:c2:fa:0d:b1:24:2d:b0:b6:79:2e:bb:26:0c:b5:3c:
         21:70:e6:09:a6:e9:7d:9c:e5:dc:8f:a5:07:37:22:20:a5:c9:
         86:8f:ba:92
-----BEGIN CERTIFICATE-----
MIIDoDCCAoigAwIBAgIBATANBgkqhkiG9w0BAQsFADBFMQswCQYDVQQGEwJDWjEO
MAwGA1UECgwFQ2FjZWsxJjAkBgNVBAMMHUNhY2VrIENlcnRpZmljYXRpb24gQXV0
aG9yaXR5MB4XDTE4MTEyNzE5MTEzNVoXDTE5MTEyNzE5MTEzNVowMTELMAkGA1UE
BhMCQ1oxDjAMBgNVBAoMBUNhY2VrMRIwEAYDVQQDDAlsb2NhbGhvc3QwggEiMA0G
CSqGSIb3DQEBAQUAA4IBDwAwggEKAoIBAQDUjcsZaAOxvGSfyAHiTCB4pPZpIjUf
P5cBomzKAiTjU9tMSims43Oz8OIgj8PhgOt/alciXSeFriKgK/4EsBG9ep6QnjiQ
sDqYD5WLUKmQBJkROWLN5NJaPlR4N/GQVmYgXJcwYVx/FlKfuwmzuuJSOJYzvbJc
xQSJVKMPxgfmgHznmtklPX91N4uSfq+/CAyyKB2gMnCcVslJVR0tCspaN5318+x/
XM+FOf/rv5WQsXOEQQnPdOkt58BtzOVJGcA5SAdj9p2ZUdy77167xKfU1PRxv9X9
qNbNWU9nimhfAzT6ZP57qUY/MhkfchL7gTrOz7AaQy5lLl7xxGdsbiRdAgMBAAGj
ga4wgaswCQYDVR0TBAIwADALBgNVHQ8EBAMCBeAwMgYIKwYBBQUHAQEEJjAkMCIG
CCsGAQUFBzABhhZodHRwOi8vbG9jYWxob3N0OjE2OTc1MF0GA1UdEQRWMFSCGG15
LXNlcnZlci5teS1jb21wYW55LmNvbYIVc2VydmVyLm15LWNvbXBhbnkuY29tghVz
ZXJ2ZXIubXktY29tcGFueS5jb22HBKwRAAKHBKwRAAMwDQYJKoZIhvcNAQELBQAD
ggEBAF08dTWl5RcMFgXUxHs6gdST0RyUYhyC4te62TAykHMFjT7rvCwAHJ0eYUfK
rJv/dTTpcOAXx4Zo6cChFpWLBOeRKQ47N7HlV7jV+54tKI5yqEiNckWCrO2PNCwt
nDQuoZbNvdzAATJP3dzOGkJ+yWZ44jLIhR98XfJaEIsXSKVMSZwu77obvrZNRjzd
0MP+f/sTJZgWEKeNu+yOOTbcTt4wvtXRBOgZ1tLEFZSqBMgb42nOFzEeXh/f7LEz
OgJtw/tgZ/AFK9VGJSXkpelgMBWk/o1bAk/Cp0BqPcL6DbEkLbC2eS67Jgy1PCFw
5gmm6X2c5dyPpQc3IiClyYaPupI=
-----END CERTIFICATE-----
