Certificate:
    Data:
        Version: 3 (0x2)
        Serial Number: 3 (0x3)
    Signature Algorithm: sha256WithRSAEncryption
        Issuer: C=CZ, O=Cacek, CN=Cacek Certification Authority
        Validity
            Not Before: Nov 27 19:11:37 2018 GMT
            Not After : Nov 27 19:11:37 2019 GMT
        Subject: C=CZ, O=Cacek, CN=revoked-client
        Subject Public Key Info:
            Public Key Algorithm: rsaEncryption
                Public-Key: (2048 bit)
                Modulus:
                    00:9d:c7:63:68:ef:96:b8:38:dd:da:be:46:07:56:
                    8a:c3:0e:e8:9e:42:e4:8b:e8:07:f7:5e:4f:cd:3c:
                    6b:81:a4:73:bb:e6:1d:2f:35:47:7c:90:53:30:97:
                    70:94:6c:e5:9f:ae:8f:5d:bc:ec:a6:a6:b4:c5:41:
                    9c:5a:9e:a7:16:c1:2f:4e:0a:4d:64:7c:2c:3d:9d:
                    3b:55:ba:07:64:ab:54:19:31:4c:a9:8c:c0:25:5a:
                    a9:cc:69:2f:ca:df:81:31:dd:e2:08:77:29:0b:e7:
                    1e:f6:98:b6:70:59:5a:20:10:79:80:4f:da:b6:da:
                    c9:1f:52:84:5f:31:ba:f7:f7:a3:bb:fe:da:d8:b4:
                    03:bf:e3:a1:92:4c:e7:08:da:c6:66:26:fa:14:ec:
                    38:b8:84:32:0b:fe:a7:fe:85:36:8c:bf:20:38:a8:
                    39:4f:48:d9:e8:2f:c0:7b:ca:b5:e5:e9:f0:59:9a:
                    6b:61:14:70:38:12:06:cc:2b:14:03:a2:39:b1:2b:
                    6a:ef:a8:a0:72:cc:da:41:73:48:3e:a8:bc:c8:c2:
                    a7:7a:bc:6c:e4:48:44:67:e3:0c:cd:66:c8:a7:a3:
                    5e:c9:62:37:93:34:5f:f4:44:c3:93:22:43:0e:97:
                    07:98:6c:65:8a:27:4a:f3:3f:75:91:76:23:96:23:
                    44:a7
                Exponent: 65537 (0x10001)
        X509v3 extensions:
            X509v3 Basic Constraints: 
                CA:FALSE
            X509v3 Key Usage: 
                Digital Signature, Non Repudiation, Key Encipherment
            Authority Information Access: 
                OCSP - URI:http://localhost:16975

            X509v3 Subject Alternative Name: 
                DNS:my-server.my-company.com, DNS:server.my-company.com, DNS:server.my-company.com, IP Address:172.17.0.2, IP Address:172.17.0.3
    Signature Algorithm: sha256WithRSAEncryption
         86:02:b5:b2:35:ca:6f:40:fe:d0:04:3d:88:d3:82:c3:06:91:
         d6:9d:3d:2f:8a:c8:37:1e:d4:2c:93:91:82:ab:a4:5c:82:0a:
         df:5b:b8:63:8a:dc:a2:3f:e9:8b:3b:16:01:26:4f:09:0e:49:
         c9:d5:bc:9c:e3:5d:9d:f6:a5:26:2b:cc:62:aa:33:8e:8c:0b:
         05:93:73:81:9f:78:e5:87:d3:c1:5a:18:cc:1f:41:f7:75:20:
         28:c1:fd:5b:50:be:ec:92:35:e4:7d:18:63:7a:b7:49:3e:cf:
         e5:7d:f3:94:ff:25:19:3d:ef:ba:dc:90:fd:5e:1b:56:0e:f0:
         8c:e3:cd:80:77:9b:bc:32:dd:2b:ad:d6:93:b6:80:e3:e8:0d:
         d6:32:db:8a:28:a2:37:73:f8:bd:da:46:62:cd:a6:79:5c:1a:
         c4:57:eb:8e:de:fb:a6:0f:bf:8f:ca:79:ba:56:3b:79:09:80:
         e9:55:40:65:7d:dd:1c:8c:ed:73:a1:d2:5b:81:e2:9d:af:a3:
         cc:4d:3a:60:2b:62:7f:c5:d9:89:90:c0:e6:fe:fa:4d:7d:63:
         ff:00:47:76:5a:63:2f:7a:62:fa:15:f1:4e:85:7a:25:3f:b4:
         f6:b5:0f:e1:6f:74:a5:fa:dd:c1:57:78:c3:ed:0f:e8:38:89:
         a3:40:c3:1f
-----BEGIN CERTIFICATE-----
MIIDpTCCAo2gAwIBAgIBAzANBgkqhkiG9w0BAQsFADBFMQswCQYDVQQGEwJDWjEO
MAwGA1UECgwFQ2FjZWsxJjAkBgNVBAMMHUNhY2VrIENlcnRpZmljYXRpb24gQXV0
aG9yaXR5MB4XDTE4MTEyNzE5MTEzN1oXDTE5MTEyNzE5MTEzN1owNjELMAkGA1UE
BhMCQ1oxDjAMBgNVBAoMBUNhY2VrMRcwFQYDVQQDDA5yZXZva2VkLWNsaWVudDCC
ASIwDQYJKoZIhvcNAQEBBQADggEPADCCAQoCggEBAJ3HY2jvlrg43dq+RgdWisMO
6J5C5IvoB/deT808a4Gkc7vmHS81R3yQUzCXcJRs5Z+uj1287KamtMVBnFqepxbB
L04KTWR8LD2dO1W6B2SrVBkxTKmMwCVaqcxpL8rfgTHd4gh3KQvnHvaYtnBZWiAQ
eYBP2rbayR9ShF8xuvf3o7v+2ti0A7/joZJM5wjaxmYm+hTsOLiEMgv+p/6FNoy/
IDioOU9I2egvwHvKteXp8Fmaa2EUcDgSBswrFAOiObErau+ooHLM2kFzSD6ovMjC
p3q8bORIRGfjDM1myKejXsliN5M0X/REw5MiQw6XB5hsZYonSvM/dZF2I5YjRKcC
AwEAAaOBrjCBqzAJBgNVHRMEAjAAMAsGA1UdDwQEAwIF4DAyBggrBgEFBQcBAQQm
MCQwIgYIKwYBBQUHMAGGFmh0dHA6Ly9sb2NhbGhvc3Q6MTY5NzUwXQYDVR0RBFYw
VIIYbXktc2VydmVyLm15LWNvbXBhbnkuY29tghVzZXJ2ZXIubXktY29tcGFueS5j
b22CFXNlcnZlci5teS1jb21wYW55LmNvbYcErBEAAocErBEAAzANBgkqhkiG9w0B
AQsFAAOCAQEAhgK1sjXKb0D+0AQ9iNOCwwaR1p09L4rINx7ULJORgqukXIIK31u4
Y4rcoj/pizsWASZPCQ5JydW8nONdnfalJivMYqozjowLBZNzgZ945YfTwVoYzB9B
93UgKMH9W1C+7JI15H0YY3q3ST7P5X3zlP8lGT3vutyQ/V4bVg7wjOPNgHebvDLd
K63Wk7aA4+gN1jLbiiiiN3P4vdpGYs2meVwaxFfrjt77pg+/j8p5ulY7eQmA6VVA
ZX3dHIztc6HSW4Hina+jzE06YCtif8XZiZDA5v76TX1j/wBHdlpjL3pi+hXxToV6
JT+09rUP4W90pfrdwVd4w+0P6DiJo0DDHw==
-----END CERTIFICATE-----
